target datalayout = "e-m:e-p270:32:32-p271:32:32-p272:64:64-i64:64-i128:128-f80:128-n8:16:32:64-S128"
target triple = "x86_64-pc-linux-gnu"

@hf_knet_payload_tree = internal global i32 0, align 4
@hf_knet_payload = internal global i32 0, align 4
@hf_knet_pingid = internal global i32 0, align 4
@hf_knet_flowctrlreq = internal global i32 0, align 4
@hf_knet_packetack = internal global i32 0, align 4
@hf_knet_seqnumber = internal global i32 0, align 4
@ett_knet_payload = internal global i32 0, align 4
@.str.60 = private unnamed_addr constant [11 x i8] c"No Payload\00", align 1

; Function Attrs: null_pointer_is_valid sspstrong uwtable
define internal i32 @dissect_payload(ptr noundef %0, i32 noundef %1, i32 noundef %2, ptr noundef %3, i32 noundef %4) #0 {
  %6 = alloca ptr, align 8
  %7 = alloca i32, align 4
  %8 = alloca i32, align 4
  %9 = alloca ptr, align 8
  %10 = alloca i32, align 4
  %11 = alloca ptr, align 8
  %12 = alloca ptr, align 8
  store ptr %0, ptr %6, align 8
  store i32 %1, ptr %7, align 4
  store i32 %2, ptr %8, align 4
  store ptr %3, ptr %9, align 8
  store i32 %4, ptr %10, align 4
  call void @llvm.lifetime.start.p0(i64 8, ptr %11) #4
  call void @llvm.lifetime.start.p0(i64 8, ptr %12) #4
  %13 = load ptr, ptr %9, align 8
  %14 = load i32, ptr @hf_knet_payload_tree, align 4
  %15 = load ptr, ptr %6, align 8
  %16 = load i32, ptr %7, align 4
  %17 = load i32, ptr %10, align 4
  %18 = sub i32 %17, 1
  %19 = call ptr @proto_tree_add_item(ptr noundef %13, i32 noundef %14, ptr noundef %15, i32 noundef %16, i32 noundef %18, i32 noundef 0)
  store ptr %19, ptr %11, align 8
  %20 = load ptr, ptr %11, align 8
  %21 = load i32, ptr @ett_knet_payload, align 4
  %22 = call ptr @proto_item_add_subtree(ptr noundef %20, i32 noundef %21)
  store ptr %22, ptr %12, align 8
  %23 = load i32, ptr %8, align 4
  switch i32 %23, label %63 [
    i32 1, label %24
    i32 2, label %24
    i32 3, label %30
    i32 4, label %36
    i32 255, label %49
    i32 254, label %49
    i32 253, label %55
    i32 252, label %55
    i32 251, label %55
  ]

24:                                               ; preds = %5, %5
  %25 = load ptr, ptr %12, align 8
  %26 = load i32, ptr @hf_knet_pingid, align 4
  %27 = load ptr, ptr %6, align 8
  %28 = load i32, ptr %7, align 4
  %29 = call ptr @proto_tree_add_item(ptr noundef %25, i32 noundef %26, ptr noundef %27, i32 noundef %28, i32 noundef 1, i32 noundef -2147483648)
  br label %71

30:                                               ; preds = %5
  %31 = load ptr, ptr %12, align 8
  %32 = load i32, ptr @hf_knet_flowctrlreq, align 4
  %33 = load ptr, ptr %6, align 8
  %34 = load i32, ptr %7, align 4
  %35 = call ptr @proto_tree_add_item(ptr noundef %31, i32 noundef %32, ptr noundef %33, i32 noundef %34, i32 noundef 3, i32 noundef -2147483648)
  br label %71

36:                                               ; preds = %5
  %37 = load ptr, ptr %12, align 8
  %38 = load i32, ptr @hf_knet_packetack, align 4
  %39 = load ptr, ptr %6, align 8
  %40 = load i32, ptr %7, align 4
  %41 = call ptr @proto_tree_add_item(ptr noundef %37, i32 noundef %38, ptr noundef %39, i32 noundef %40, i32 noundef 3, i32 noundef -2147483648)
  %42 = load i32, ptr %7, align 4
  %43 = add i32 %42, 3
  store i32 %43, ptr %7, align 4
  %44 = load ptr, ptr %12, align 8
  %45 = load i32, ptr @hf_knet_seqnumber, align 4
  %46 = load ptr, ptr %6, align 8
  %47 = load i32, ptr %7, align 4
  %48 = call ptr @proto_tree_add_item(ptr noundef %44, i32 noundef %45, ptr noundef %46, i32 noundef %47, i32 noundef 4, i32 noundef -2147483648)
  br label %71

49:                                               ; preds = %5, %5
  %50 = load ptr, ptr %12, align 8
  %51 = load i32, ptr @hf_knet_payload, align 4
  %52 = load ptr, ptr %6, align 8
  %53 = load i32, ptr %7, align 4
  %54 = call ptr (ptr, i32, ptr, i32, i32, ptr, ptr, ...) @proto_tree_add_bytes_format(ptr noundef %50, i32 noundef %51, ptr noundef %52, i32 noundef %53, i32 noundef 0, ptr noundef null, ptr noundef @.str.60)
  br label %71

55:                                               ; preds = %5, %5, %5
  %56 = load ptr, ptr %12, align 8
  %57 = load i32, ptr @hf_knet_payload, align 4
  %58 = load ptr, ptr %6, align 8
  %59 = load i32, ptr %7, align 4
  %60 = load i32, ptr %10, align 4
  %61 = sub i32 %60, 1
  %62 = call ptr @proto_tree_add_item(ptr noundef %56, i32 noundef %57, ptr noundef %58, i32 noundef %59, i32 noundef %61, i32 noundef 0)
  br label %71

63:                                               ; preds = %5
  %64 = load ptr, ptr %12, align 8
  %65 = load i32, ptr @hf_knet_payload, align 4
  %66 = load ptr, ptr %6, align 8
  %67 = load i32, ptr %7, align 4
  %68 = load i32, ptr %10, align 4
  %69 = sub i32 %68, 1
  %70 = call ptr @proto_tree_add_item(ptr noundef %64, i32 noundef %65, ptr noundef %66, i32 noundef %67, i32 noundef %69, i32 noundef 0)
  br label %71

71:                                               ; preds = %63, %55, %49, %36, %30, %24
  call void @llvm.lifetime.end.p0(i64 8, ptr %12) #4
  call void @llvm.lifetime.end.p0(i64 8, ptr %11) #4
  ret i32 0
}