; Function Attrs: null_pointer_is_valid sspstrong uwtable
define internal fastcc void @dissect_payload(ptr noundef %0, i32 noundef %1, i32 noundef range(i32 0, 256) %2, ptr noundef %3, i32 noundef range(i32 0, -2147483648) %4) unnamed_addr #0 {
  %6 = load i32, ptr @hf_knet_payload_tree, align 4
  %7 = add nsw i32 %4, -1
  %8 = tail call ptr @proto_tree_add_item(ptr noundef %3, i32 noundef %6, ptr noundef %0, i32 noundef %1, i32 noundef %7, i32 noundef 0)
  %9 = load i32, ptr @ett_knet_payload, align 4
  %10 = tail call ptr @proto_item_add_subtree(ptr noundef %8, i32 noundef %9)
  %trunc = trunc nuw i32 %2 to i8
  switch i8 %trunc, label %29 [
    i8 1, label %11
    i8 2, label %11
    i8 3, label %14
    i8 4, label %17
    i8 -1, label %23
    i8 -2, label %23
    i8 -3, label %26
    i8 -4, label %26
    i8 -5, label %26
  ]

11:                                               ; preds = %5, %5
  %12 = load i32, ptr @hf_knet_pingid, align 4
  %13 = tail call ptr @proto_tree_add_item(ptr noundef %10, i32 noundef %12, ptr noundef %0, i32 noundef %1, i32 noundef 1, i32 noundef -2147483648)
  br label %32

14:                                               ; preds = %5
  %15 = load i32, ptr @hf_knet_flowctrlreq, align 4
  %16 = tail call ptr @proto_tree_add_item(ptr noundef %10, i32 noundef %15, ptr noundef %0, i32 noundef %1, i32 noundef 3, i32 noundef -2147483648)
  br label %32

17:                                               ; preds = %5
  %18 = load i32, ptr @hf_knet_packetack, align 4
  %19 = tail call ptr @proto_tree_add_item(ptr noundef %10, i32 noundef %18, ptr noundef %0, i32 noundef %1, i32 noundef 3, i32 noundef -2147483648)
  %20 = add i32 %1, 3
  %21 = load i32, ptr @hf_knet_seqnumber, align 4
  %22 = tail call ptr @proto_tree_add_item(ptr noundef %10, i32 noundef %21, ptr noundef %0, i32 noundef %20, i32 noundef 4, i32 noundef -2147483648)
  br label %32

23:                                               ; preds = %5, %5
  %24 = load i32, ptr @hf_knet_payload, align 4
  %25 = tail call ptr (ptr, i32, ptr, i32, i32, ptr, ptr, ...) @proto_tree_add_bytes_format(ptr noundef %10, i32 noundef %24, ptr noundef %0, i32 noundef %1, i32 noundef 0, ptr noundef null, ptr noundef nonnull @.str.60)
  br label %32

26:                                               ; preds = %5, %5, %5
  %27 = load i32, ptr @hf_knet_payload, align 4
  %28 = tail call ptr @proto_tree_add_item(ptr noundef %10, i32 noundef %27, ptr noundef %0, i32 noundef %1, i32 noundef %7, i32 noundef 0)
  br label %32

29:                                               ; preds = %5
  %30 = load i32, ptr @hf_knet_payload, align 4
  %31 = tail call ptr @proto_tree_add_item(ptr noundef %10, i32 noundef %30, ptr noundef %0, i32 noundef %1, i32 noundef %7, i32 noundef 0)
  br label %32

32:                                               ; preds = %29, %26, %23, %17, %14, %11
  ret void
}